; Function Attrs: nounwind uwtable
define void @stbir__decode_float_linear_ARGB(ptr noundef %0, i32 noundef %1, ptr noundef readonly captures(none) %2) #0 {
  %4 = sext i32 %1 to i64
  %.idx = shl nsw i64 %4, 2
  %5 = getelementptr inbounds i8, ptr %0, i64 %.idx
  %6 = icmp sgt i32 %1, 15
  br i1 %6, label %7, label %.preheader

.preheader:                                       ; preds = %3
  %.not54 = icmp slt i32 %1, 4
  br i1 %.not54, label %.loopexit, label %.lr.ph.preheader

.lr.ph.preheader:                                 ; preds = %.preheader
  %.153 = getelementptr inbounds nuw i8, ptr %0, i64 16
  br label %.lr.ph

7:                                                ; preds = %3
  %8 = getelementptr inbounds nuw float, ptr %2, i64 %4
  %9 = getelementptr inbounds i8, ptr %8, i64 -64
  %10 = getelementptr inbounds i8, ptr %5, i64 -64
  br label %.backedge

.backedge:                                        ; preds = %.backedge.backedge, %7
  %.047 = phi ptr [ %2, %7 ], [ %.047.be, %.backedge.backedge ]
  %.0 = phi ptr [ %0, %7 ], [ %.0.be, %.backedge.backedge ]
  tail call void asm sideeffect "", "r,~{dirflag},~{fpsr},~{flags}"(ptr %.0) #24, !srcloc !293
  %11 = load <4 x float>, ptr %.047, align 1, !tbaa !4
  %12 = getelementptr inbounds nuw i8, ptr %.047, i64 16
  %13 = load <4 x float>, ptr %12, align 1, !tbaa !4
  %14 = getelementptr inbounds nuw i8, ptr %.047, i64 32
  %15 = load <4 x float>, ptr %14, align 1, !tbaa !4
  %16 = getelementptr inbounds nuw i8, ptr %.047, i64 48
  %17 = load <4 x float>, ptr %16, align 1, !tbaa !4
  %18 = shufflevector <4 x float> %11, <4 x float> poison, <4 x i32> <i32 1, i32 2, i32 3, i32 0>
  %19 = shufflevector <4 x float> %13, <4 x float> poison, <4 x i32> <i32 1, i32 2, i32 3, i32 0>
  %20 = shufflevector <4 x float> %15, <4 x float> poison, <4 x i32> <i32 1, i32 2, i32 3, i32 0>
  %21 = shufflevector <4 x float> %17, <4 x float> poison, <4 x i32> <i32 1, i32 2, i32 3, i32 0>
  store <4 x float> %18, ptr %.0, align 1, !tbaa !4
  %22 = getelementptr inbounds nuw i8, ptr %.0, i64 16
  store <4 x float> %19, ptr %22, align 1, !tbaa !4
  %23 = getelementptr inbounds nuw i8, ptr %.0, i64 32
  store <4 x float> %20, ptr %23, align 1, !tbaa !4
  %24 = getelementptr inbounds nuw i8, ptr %.0, i64 48
  store <4 x float> %21, ptr %24, align 1, !tbaa !4
  %25 = getelementptr inbounds nuw i8, ptr %.0, i64 64
  %26 = getelementptr inbounds nuw i8, ptr %.047, i64 64
  %.not51 = icmp ugt ptr %25, %10
  br i1 %.not51, label %27, label %.backedge.backedge

.backedge.backedge:                               ; preds = %.backedge, %27
  %.047.be = phi ptr [ %26, %.backedge ], [ %9, %27 ]
  %.0.be = phi ptr [ %25, %.backedge ], [ %10, %27 ]
  br label %.backedge, !llvm.loop !294

27:                                               ; preds = %.backedge
  %28 = icmp eq ptr %25, %5
  br i1 %28, label %.loopexit, label %.backedge.backedge

.lr.ph:                                           ; preds = %.lr.ph.preheader, %.lr.ph
  %.157 = phi ptr [ %.1, %.lr.ph ], [ %.153, %.lr.ph.preheader ]
  %.pn56 = phi ptr [ %.157, %.lr.ph ], [ %0, %.lr.ph.preheader ]
  %.14855 = phi ptr [ %39, %.lr.ph ], [ %2, %.lr.ph.preheader ]
  tail call void asm sideeffect "", "r,~{dirflag},~{fpsr},~{flags}"(ptr nonnull %.157) #24, !srcloc !295
  %29 = getelementptr inbounds nuw i8, ptr %.14855, i64 4
  %30 = load float, ptr %29, align 4, !tbaa !50
  store float %30, ptr %.pn56, align 4, !tbaa !50
  %31 = getelementptr inbounds nuw i8, ptr %.14855, i64 8
  %32 = load float, ptr %31, align 4, !tbaa !50
  %33 = getelementptr inbounds nuw i8, ptr %.pn56, i64 4
  store float %32, ptr %33, align 4, !tbaa !50
  %34 = getelementptr inbounds nuw i8, ptr %.14855, i64 12
  %35 = load float, ptr %34, align 4, !tbaa !50
  %36 = getelementptr inbounds nuw i8, ptr %.pn56, i64 8
  store float %35, ptr %36, align 4, !tbaa !50
  %37 = load float, ptr %.14855, align 4, !tbaa !50
  %38 = getelementptr inbounds nuw i8, ptr %.pn56, i64 12
  store float %37, ptr %38, align 4, !tbaa !50
  %39 = getelementptr inbounds nuw i8, ptr %.14855, i64 16
  %.1 = getelementptr inbounds nuw i8, ptr %.157, i64 16
  %.not = icmp ugt ptr %.1, %5
  br i1 %.not, label %.loopexit, label %.lr.ph, !llvm.loop !296

.loopexit:                                        ; preds = %.lr.ph, %27, %.preheader
  ret void
}